; Function Attrs: nounwind uwtable
define hidden zeroext i1 @SDL_SetJoystickVirtualHat_REAL(ptr noundef %0, i32 noundef %1, i8 noundef zeroext %2) local_unnamed_addr #1 {
  %4 = tail call i32 @SDL_AddAtomicInt_REAL(ptr noundef nonnull @SDL_joystick_lock_pending, i32 noundef 1) #13
  %5 = load ptr, ptr @SDL_joystick_lock, align 8
  tail call void @SDL_LockMutex_REAL(ptr noundef %5) #13
  %6 = tail call i32 @SDL_AddAtomicInt_REAL(ptr noundef nonnull @SDL_joystick_lock_pending, i32 noundef -1) #13
  %7 = load i32, ptr @SDL_joysticks_locked, align 4
  %8 = add nsw i32 %7, 1
  store i32 %8, ptr @SDL_joysticks_locked, align 4
  %9 = tail call zeroext i1 @SDL_ObjectValid(ptr noundef %0, i32 noundef 4) #13
  br i1 %9, label %22, label %10

10:                                               ; preds = %3
  %11 = tail call zeroext i1 (ptr, ...) @SDL_SetError_REAL(ptr noundef nonnull @.str.2, ptr noundef nonnull @.str.3) #13
  %12 = load i32, ptr @SDL_joysticks_locked, align 4
  %13 = add nsw i32 %12, -1
  store i32 %13, ptr @SDL_joysticks_locked, align 4
  %.b4.i = load i1, ptr @SDL_joysticks_initialized, align 1
  %14 = icmp ne i32 %13, 0
  %or.cond.i = select i1 %.b4.i, i1 true, i1 %14
  br i1 %or.cond.i, label %.critedge.i, label %15

15:                                               ; preds = %10
  %16 = tail call i32 @SDL_GetAtomicInt_REAL(ptr noundef nonnull @SDL_joystick_lock_pending) #13
  %17 = icmp eq i32 %16, 0
  br i1 %17, label %18, label %.critedge.i

18:                                               ; preds = %15
  %19 = load ptr, ptr @SDL_joystick_lock, align 8
  tail call void @SDL_LockMutex_REAL(ptr noundef %19) #13
  %20 = load ptr, ptr @SDL_joystick_lock, align 8
  tail call void @SDL_UnlockMutex_REAL(ptr noundef %20) #13
  store ptr null, ptr @SDL_joystick_lock, align 8
  tail call void @SDL_UnlockMutex_REAL(ptr noundef %19) #13
  tail call void @SDL_DestroyMutex_REAL(ptr noundef %19) #13
  br label %SDL_UnlockJoysticks_REAL.exit

.critedge.i:                                      ; preds = %15, %10
  %21 = load ptr, ptr @SDL_joystick_lock, align 8
  tail call void @SDL_UnlockMutex_REAL(ptr noundef %21) #13
  br label %SDL_UnlockJoysticks_REAL.exit

22:                                               ; preds = %3
  %23 = getelementptr inbounds nuw i8, ptr %0, i64 65
  %24 = load i8, ptr %23, align 1, !range !26, !noundef !27
  %25 = trunc nuw i8 %24 to i1
  br i1 %25, label %38, label %26

26:                                               ; preds = %22
  %27 = tail call zeroext i1 (ptr, ...) @SDL_SetError_REAL(ptr noundef nonnull @.str.4) #13
  %28 = load i32, ptr @SDL_joysticks_locked, align 4
  %29 = add nsw i32 %28, -1
  store i32 %29, ptr @SDL_joysticks_locked, align 4
  %.b4.i6 = load i1, ptr @SDL_joysticks_initialized, align 1
  %30 = icmp ne i32 %29, 0
  %or.cond.i7 = select i1 %.b4.i6, i1 true, i1 %30
  br i1 %or.cond.i7, label %.critedge.i8, label %31

31:                                               ; preds = %26
  %32 = tail call i32 @SDL_GetAtomicInt_REAL(ptr noundef nonnull @SDL_joystick_lock_pending) #13
  %33 = icmp eq i32 %32, 0
  br i1 %33, label %34, label %.critedge.i8

34:                                               ; preds = %31
  %35 = load ptr, ptr @SDL_joystick_lock, align 8
  tail call void @SDL_LockMutex_REAL(ptr noundef %35) #13
  %36 = load ptr, ptr @SDL_joystick_lock, align 8
  tail call void @SDL_UnlockMutex_REAL(ptr noundef %36) #13
  store ptr null, ptr @SDL_joystick_lock, align 8
  tail call void @SDL_UnlockMutex_REAL(ptr noundef %35) #13
  tail call void @SDL_DestroyMutex_REAL(ptr noundef %35) #13
  br label %SDL_UnlockJoysticks_REAL.exit

.critedge.i8:                                     ; preds = %31, %26
  %37 = load ptr, ptr @SDL_joystick_lock, align 8
  tail call void @SDL_UnlockMutex_REAL(ptr noundef %37) #13
  br label %SDL_UnlockJoysticks_REAL.exit

38:                                               ; preds = %22
  %39 = tail call zeroext i1 @SDL_SetJoystickVirtualHatInner(ptr noundef nonnull %0, i32 noundef %1, i8 noundef zeroext %2) #13
  %40 = load i32, ptr @SDL_joysticks_locked, align 4
  %41 = add nsw i32 %40, -1
  store i32 %41, ptr @SDL_joysticks_locked, align 4
  %.b4.i10 = load i1, ptr @SDL_joysticks_initialized, align 1
  %42 = icmp ne i32 %41, 0
  %or.cond.i11 = select i1 %.b4.i10, i1 true, i1 %42
  br i1 %or.cond.i11, label %.critedge.i12, label %43

43:                                               ; preds = %38
  %44 = tail call i32 @SDL_GetAtomicInt_REAL(ptr noundef nonnull @SDL_joystick_lock_pending) #13
  %45 = icmp eq i32 %44, 0
  br i1 %45, label %46, label %.critedge.i12

46:                                               ; preds = %43
  %47 = load ptr, ptr @SDL_joystick_lock, align 8
  tail call void @SDL_LockMutex_REAL(ptr noundef %47) #13
  %48 = load ptr, ptr @SDL_joystick_lock, align 8
  tail call void @SDL_UnlockMutex_REAL(ptr noundef %48) #13
  store ptr null, ptr @SDL_joystick_lock, align 8
  tail call void @SDL_UnlockMutex_REAL(ptr noundef %47) #13
  tail call void @SDL_DestroyMutex_REAL(ptr noundef %47) #13
  br label %SDL_UnlockJoysticks_REAL.exit

.critedge.i12:                                    ; preds = %43, %38
  %49 = load ptr, ptr @SDL_joystick_lock, align 8
  tail call void @SDL_UnlockMutex_REAL(ptr noundef %49) #13
  br label %SDL_UnlockJoysticks_REAL.exit

SDL_UnlockJoysticks_REAL.exit:                    ; preds = %.critedge.i12, %46, %.critedge.i8, %34, %.critedge.i, %18
  %.0 = phi i1 [ false, %18 ], [ false, %.critedge.i ], [ false, %34 ], [ false, %.critedge.i8 ], [ %39, %46 ], [ %39, %.critedge.i12 ]
  ret i1 %.0
}